(lp0
(dp1
((F6.5
F6.666666666666667
tp2
(F6.666666666666667
F9.5
tp3
tp4
(lp5
(lp6
g2
a(F6.25
F7.0
tp7
a(F5.25
F8.0
tp8
a(F5.5
F8.5
tp9
a(F5.0
F9.25
tp10
ag3
aaF4.981597410293763
as((F5.666666666666667
F5.0
tp11
(F9.333333333333334
F9.0
tp12
tp13
(lp14
(lp15
g11
a(F6.0
F6.0
tp16
a(F7.25
F7.0
tp17
a(F7.900000095367432
F6.75
tp18
a(F8.650000095367432
F6.75
tp19
a(F9.5
F4.0
tp20
a(F9.5
F9.0
tp21
ag12
aaF10.002338497572993
as((F4.666666666666667
F4.333333333333333
tp22
g3
tp23
(lp24
(lp25
g22
a(F5.0
F4.5
tp26
ag16
ag7
ag8
ag9
ag10
ag3
aaF7.773160784013472
as(g11
g2
tp27
(lp28
(lp29
g11
a(F6.0
F6.0
tp30
ag2
aaF1.889425886722793
as(g22
g2
tp31
(lp32
(lp33
g22
ag26
ag16
ag2
aaF3.0117869673152926
as((F1.0
F8.833333333333334
tp34
g2
tp35
(lp36
(lp37
g34
a(F1.5
F8.25
tp38
a(F2.5
F8.75
tp39
ag9
ag8
ag7
ag2
aaF7.292625228303753
as(g3
g12
tp40
(lp41
(lp42
g3
a(F9.0
F9.5
tp43
a(F9.5
F9.5
tp44
ag12
aaF3.3633796100280624
as(g22
g11
tp45
(lp46
(lp47
g22
a(F5.0
F4.5
tp48
ag11
aaF1.2080113295832984
as(g3
g22
tp49
(lp50
(lp51
g3
ag10
ag9
a(F5.25
F8.0
tp52
ag7
ag16
ag26
ag22
aaF7.773160784013471
as(g22
g34
tp53
(lp54
(lp55
g22
ag26
a(F6.0
F4.5
tp56
a(F5.5
F2.0
tp57
a(F4.0
F2.0
tp58
a(F1.0
F1.5
tp59
a(F0.5
F3.5
tp60
a(F0.5
F8.5
tp61
ag34
aaF10.08418860202346
as(g3
g34
tp62
(lp63
(lp64
g3
ag10
ag39
ag38
ag34
aaF6.125151485000419
as(g12
g11
tp65
(lp66
(lp67
g12
ag21
ag20
ag19
a(F7.900000095367432
F6.75
tp68
a(F7.25
F7.0
tp69
ag16
ag11
aaF10.002338497572994
as(g34
g3
tp70
(lp71
(lp72
g34
ag38
a(F2.5
F8.75
tp73
ag10
ag3
aaF6.125151485000419
as(g11
g3
tp74
(lp75
(lp76
g11
ag16
a(F6.25
F7.0
tp77
ag8
ag9
ag10
ag3
aaF6.650799703420972
as(g3
g11
tp78
(lp79
(lp80
g3
ag10
ag9
ag8
ag77
ag16
ag11
aaF6.650799703420971
as(g3
g2
tp81
(lp82
(lp83
g3
ag10
ag9
ag8
ag7
ag2
aaF4.981597410293763
as(g22
g12
tp84
(lp85
(lp86
g22
ag26
ag16
ag17
ag68
ag19
ag20
ag21
ag12
aaF11.124699578165494
as(g34
g12
tp87
(lp88
(lp89
g34
ag38
ag39
a(F5.0
F9.25
tp90
ag43
a(F9.5
F9.5
tp91
ag12
aaF9.47669027915244
as(g34
g22
tp92
(lp93
(lp94
g34
ag38
ag39
ag9
ag52
ag7
ag16
ag26
ag22
aaF10.084188602023461
as(g12
g2
tp95
(lp96
(lp97
g12
ag21
ag20
ag19
ag68
ag17
ag2
aaF8.333136204445786
as(g34
g11
tp98
(lp99
(lp100
g34
ag61
ag60
ag59
ag58
a(F5.5
F2.0
tp101
ag56
ag11
aaF8.96182752143096
as(g11
g34
tp102
(lp103
(lp104
g11
ag56
ag101
ag58
ag59
ag60
ag61
ag34
aaF8.96182752143096
as(g12
g3
tp105
(lp106
(lp107
g12
ag91
a(F9.0
F9.5
tp108
ag3
aaF3.363379610028063
as(g2
g22
tp109
(lp110
(lp111
g2
ag30
ag48
ag22
aaF3.0117869673152926
as(g2
g34
tp112
(lp113
(lp114
g2
ag7
ag8
ag9
ag39
ag38
ag34
aaF7.292625228303752
as(g11
g22
tp115
(lp116
(lp117
g11
ag26
ag22
aaF1.2080113295832984
as(g2
g11
tp118
(lp119
(lp120
g2
ag16
ag11
aaF1.889425886722793
as(g2
g12
tp121
(lp122
(lp123
g2
ag17
ag68
ag19
ag20
ag21
ag12
aaF8.333136204445786
as(g12
g22
tp124
(lp125
(lp126
g12
ag21
ag20
ag19
ag18
ag17
ag16
ag26
ag22
aaF11.124699578165496
as(g12
g34
tp127
(lp128
(lp129
g12
ag91
ag108
ag10
ag73
ag38
ag34
aaF9.476690279152441
asa(dp130
((F6.5
F6.666666666666667
tp131
(F4.666666666666667
F0.5
tp132
tp133
(lp134
(lp135
g131
ag30
ag56
ag57
ag58
a(F3.0
F0.5
tp136
ag132
aaF9.858285394528387
as((F8.666666666666666
F1.1666666666666667
tp137
g132
tp138
(lp139
(lp140
g137
a(F8.0
F1.75
tp141
a(F7.0
F0.75
tp142
ag132
aaF4.649747020155768
as((F9.666666666666666
F6.0
tp143
(F4.666666666666667
F4.333333333333333
tp144
tp145
(lp146
(lp147
g143
ag20
ag19
ag18
ag17
ag16
ag26
ag144
aaF10.11495419077112
as(g144
g132
tp148
(lp149
(lp150
g144
ag26
ag56
ag57
a(F4.0
F2.0
tp151
ag136
ag132
aaF8.897630057445017
as((F5.666666666666667
F5.0
tp152
g131
tp153
(lp154
(lp155
g152
ag30
ag131
aaF1.889425886722793
as(g152
g137
tp156
(lp157
(lp158
g152
ag56
ag101
ag58
ag136
ag142
ag141
ag137
aaF9.869794353121955
as(g143
g152
tp159
(lp160
(lp161
g143
ag20
ag19
ag68
ag69
ag16
ag152
aaF8.99259311017862
as(g152
g143
tp162
(lp163
(lp164
g152
ag16
ag17
ag18
ag19
ag20
ag143
aaF8.99259311017862
as(g144
g131
tp165
(lp166
(lp167
g144
ag26
ag16
ag131
aaF3.0117869673152926
as(g131
g143
tp168
(lp169
(lp170
g131
ag17
ag68
ag19
ag20
ag143
aaF7.157457647580623
as(g144
g152
tp171
(lp172
(lp173
g144
ag48
ag152
aaF1.2080113295832984
as(g132
g144
tp174
(lp175
(lp176
g132
ag136
ag58
ag101
ag56
ag26
ag144
aaF8.897630057445019
as(g137
g152
tp177
(lp178
(lp179
g137
ag141
ag142
ag136
ag58
ag101
ag56
ag152
aaF9.869794353121954
as(g152
g132
tp180
(lp181
(lp182
g152
ag56
ag101
ag58
ag136
ag132
aaF8.124877273772384
as(g132
g152
tp183
(lp184
(lp185
g132
ag136
ag58
ag101
ag56
ag152
aaF8.124877273772386
as(g132
g131
tp186
(lp187
(lp188
g132
ag136
ag58
ag101
a(F6.0
F4.5
tp189
ag30
ag131
aaF9.858285394528387
as(g131
g137
tp190
(lp191
(lp192
g131
ag17
ag68
ag19
a(F9.150000095367432
F2.75
tp193
a(F9.0
F1.5
tp194
ag137
aaF8.034658890523957
as(g137
g131
tp195
(lp196
(lp197
g137
ag194
ag193
ag19
ag68
ag17
ag131
aaF8.034658890523957
as(g137
g144
tp198
(lp199
(lp200
g137
ag194
ag193
ag19
ag18
ag17
ag16
ag26
ag144
aaF10.992155433714455
as(g131
g144
tp201
(lp202
(lp203
g131
ag30
ag48
ag144
aaF3.0117869673152926
as(g144
g137
tp204
(lp205
(lp206
g144
ag26
ag56
ag57
ag58
ag136
ag142
ag141
ag137
aaF10.992155433714453
as(g143
g137
tp207
(lp208
(lp209
g143
ag20
ag193
ag194
ag137
aaF5.039380266014548
as(g137
g143
tp210
(lp211
(lp212
g137
ag194
a(F9.150000095367432
F2.75
tp213
ag20
ag143
aaF5.039380266014549
as(g143
g131
tp214
(lp215
(lp216
g143
ag20
ag19
ag68
ag17
ag131
aaF7.157457647580624
as(g144
g143
tp217
(lp218
(lp219
g144
ag26
ag16
ag17
ag68
ag19
ag20
ag143
aaF10.114954190771119
as(g132
g143
tp220
(lp221
(lp222
g132
a(F7.0
F0.75
tp223
a(F8.0
F1.75
tp224
a(F9.0
F1.5
tp225
ag213
ag20
ag143
aaF9.361653687389147
as(g152
g144
tp226
(lp227
(lp228
g152
ag26
ag144
aaF1.2080113295832984
as(g131
g152
tp229
(lp230
(lp231
g131
ag16
ag152
aaF1.889425886722793
as(g143
g132
tp232
(lp233
(lp234
g143
ag20
ag213
ag194
ag224
ag223
ag132
aaF9.361653687389147
as(g132
g137
tp235
(lp236
(lp237
g132
ag223
ag224
ag137
aaF4.649747020155769
asa(dp238
((F5.666666666666667
F5.0
tp239
(F6.5
F6.666666666666667
tp240
tp241
(lp242
(lp243
g239
ag30
ag240
aaF1.889425886722793
as((F4.333333333333333
F2.3333333333333335
tp244
(F0.3333333333333333
F5.666666666666667
tp245
tp246
(lp247
(lp248
g244
ag151
ag59
ag60
ag245
aaF7.751406067149855
as(g239
g245
tp249
(lp250
(lp251
g239
ag56
ag101
ag58
ag59
ag60
ag245
aaF11.932436515732546
as(g244
(F4.666666666666667
F4.333333333333333
tp252
tp253
(lp254
(lp255
g244
ag101
ag56
ag26
ag252
aaF5.139539401259777
as(g244
(F1.0
F3.3333333333333335
tp256
tp257
(lp258
(lp259
g244
ag151
a(F1.0
F1.5
tp260
ag256
aaF5.349119119273475
as(g252
g240
tp261
(lp262
(lp263
g252
ag26
ag16
ag240
aaF3.0117869673152926
as(g256
g240
tp264
(lp265
(lp266
g256
ag59
ag58
ag101
ag189
ag30
ag240
aaF11.263557688612169
as(g256
g244
tp267
(lp268
(lp269
g256
ag59
ag58
ag244
aaF5.349119119273475
as(g252
g239
tp270
(lp271
(lp272
g252
ag48
ag239
aaF1.2080113295832984
as(g252
g256
tp273
(lp274
(lp275
g252
ag26
ag56
ag57
ag151
ag59
ag256
aaF10.3029023515288
as(g245
g252
tp276
(lp277
(lp278
g245
ag60
ag59
ag58
ag101
ag56
ag26
ag252
aaF12.70518929940518
as(g252
g244
tp279
(lp280
(lp281
g252
ag26
ag56
ag57
ag244
aaF5.139539401259777
as(g245
g240
tp282
(lp283
(lp284
g245
a(F0.5
F8.5
tp285
ag38
ag39
ag9
ag8
ag7
ag240
aaF10.394337324254828
as(g256
g245
tp286
(lp287
(lp288
g256
ag60
ag245
aaF2.7021137450956125
as(g240
g244
tp289
(lp290
(lp291
g240
ag30
ag189
ag101
ag244
aaF6.100194738343145
as(g245
g244
tp292
(lp293
(lp294
g245
ag60
ag260
ag151
ag244
aaF7.751406067149855
as(g256
g252
tp295
(lp296
(lp297
g256
ag59
ag58
ag101
ag56
ag26
ag252
aaF10.3029023515288
as(g244
g240
tp298
(lp299
(lp300
g244
ag101
ag56
ag30
ag240
aaF6.100194738343145
as(g245
g239
tp301
(lp302
(lp303
g245
ag60
ag59
ag58
ag101
ag56
ag239
aaF11.932436515732547
as(g239
g244
tp304
(lp305
(lp306
g239
ag56
ag57
ag244
aaF4.3667866175871435
as(g256
g239
tp307
(lp308
(lp309
g256
ag59
ag58
ag101
ag56
ag239
aaF9.530149567856167
as(g239
g256
tp310
(lp311
(lp312
g239
ag56
ag101
ag58
ag59
ag256
aaF9.530149567856167
as(g240
g252
tp313
(lp314
(lp315
g240
ag30
ag48
ag252
aaF3.0117869673152926
as(g252
g245
tp316
(lp317
(lp318
g252
ag26
ag56
ag57
ag58
ag59
ag60
ag245
aaF12.70518929940518
as(g240
g256
tp319
(lp320
(lp321
g240
ag30
ag56
ag57
ag58
ag59
ag256
aaF11.263557688612167
as(g239
g252
tp322
(lp323
(lp324
g239
ag26
ag252
aaF1.2080113295832984
as(g240
g239
tp325
(lp326
(lp327
g240
ag16
ag239
aaF1.889425886722793
as(g244
g239
tp328
(lp329
(lp330
g244
ag101
ag189
ag239
aaF4.3667866175871435
as(g245
g256
tp331
(lp332
(lp333
g245
a(F0.5
F3.5
tp334
ag256
aaF2.7021137450956125
as(g240
g245
tp335
(lp336
(lp337
g240
ag7
ag52
a(F5.5
F8.5
tp338
ag39
ag38
ag285
ag245
aaF10.394337324254826
asa(dp339
g4
g5
sg138
g139
sg145
g146
sg23
g24
sg133
g134
sg27
g242
sg246
g247
sg273
g274
sg156
g157
sg279
g280
sg159
g160
sg304
g305
sg198
g199
sg257
g258
sg162
g163
sg31
g262
sg35
g36
sg168
g169
sg267
g268
sg286
g287
sg232
g233
sg40
g41
sg148
g149
sg45
g271
sg49
g50
sg53
g54
sg62
g63
sg65
g66
sg295
g296
sg180
g181
sg70
g71
sg282
g283
sg319
g320
sg74
g75
sg78
g79
sg81
g82
sg84
g85
sg253
g254
sg87
g88
sg190
g191
sg276
g277
sg92
g93
sg95
g96
sg195
g196
sg301
g302
sg316
g317
sg328
g329
sg335
g336
sg249
g250
sg183
g184
sg292
g293
sg217
g218
sg98
g99
sg264
g265
sg186
g187
sg102
g103
sg105
g106
sg298
g299
sg109
g314
sg204
g205
sg112
g113
sg207
g208
sg310
g311
sg210
g211
sg214
g215
sg115
g323
sg220
g221
sg13
g14
sg118
g326
sg121
g122
sg174
g175
sg235
g236
sg177
g178
sg331
g332
sg124
g125
sg289
g290
sg127
g128
sg307
g308
sa.