(lp0
(lp1
(lp2
(lp3
I0
aI0
aa(lp4
I8
aF0.5
aa(lp5
I10
aI0
aa(lp6
I10
aI10
aa(lp7
I2
aF9.5
aa(lp8
I0
aI10
aaa(lp9
(lp10
F2.0
aI3
aa(lp11
I1
aI7
aa(lp12
I3
aI8
aa(lp13
I5
aI6
aa(lp14
I4
aI4
aa(lp15
I5
aI3
aaa(lp16
(lp17
I6
aI1
aa(lp18
I8
aI3
aa(lp19
F8.3
aF5.5
aa(lp20
F7.0
aF6.0
aaa(lp21
(lp22
F7.5
aF8.0
aa(lp23
F9.0
aF8.0
aa(lp24
F9.0
aF9.0
aa(lp25
F8.0
aF9.0
aaaa(lp26
((F1.0
F7.0
tp27
(F0.0
F0.0
tp28
(F2.0
F3.0
tp29
tp30
a((F6.0
F1.0
tp31
(F0.0
F0.0
tp32
(F8.0
F0.5
tp33
tp34
a((F9.0
F8.0
tp35
(F8.300000190734863
F5.5
tp36
(F10.0
F0.0
tp37
tp38
a((F5.0
F6.0
tp39
(F7.0
F6.0
tp40
(F7.5
F8.0
tp41
tp42
a((F5.0
F3.0
tp43
(F2.0
F3.0
tp44
(F6.0
F1.0
tp45
tp46
a((F7.5
F8.0
tp47
(F7.0
F6.0
tp48
(F8.300000190734863
F5.5
tp49
tp50
a((F7.0
F6.0
tp51
(F5.0
F3.0
tp52
(F6.0
F1.0
tp53
tp54
a((F4.0
F4.0
tp55
(F5.0
F3.0
tp56
(F5.0
F6.0
tp57
tp58
a((F10.0
F10.0
tp59
(F9.0
F9.0
tp60
(F9.0
F8.0
tp61
tp62
a((F8.0
F9.0
tp63
(F3.0
F8.0
tp64
(F7.5
F8.0
tp65
tp66
a((F8.0
F9.0
tp67
(F9.0
F9.0
tp68
(F10.0
F10.0
tp69
tp70
a((F8.0
F3.0
tp71
(F8.0
F0.5
tp72
(F10.0
F0.0
tp73
tp74
a((F3.0
F8.0
tp75
(F5.0
F6.0
tp76
(F7.5
F8.0
tp77
tp78
a((F8.300000190734863
F5.5
tp79
(F8.0
F3.0
tp80
(F10.0
F0.0
tp81
tp82
a((F0.0
F10.0
tp83
(F1.0
F7.0
tp84
(F2.0
F9.5
tp85
tp86
a((F2.0
F3.0
tp87
(F0.0
F0.0
tp88
(F6.0
F1.0
tp89
tp90
a((F2.0
F9.5
tp91
(F8.0
F9.0
tp92
(F10.0
F10.0
tp93
tp94
a((F10.0
F10.0
tp95
(F9.0
F8.0
tp96
(F10.0
F0.0
tp97
tp98
a((F1.0
F7.0
tp99
(F0.0
F10.0
tp100
(F0.0
F0.0
tp101
tp102
a((F6.0
F1.0
tp103
(F8.0
F0.5
tp104
(F8.0
F3.0
tp105
tp106
a((F7.5
F8.0
tp107
(F8.300000190734863
F5.5
tp108
(F9.0
F8.0
tp109
tp110
a((F2.0
F9.5
tp111
(F3.0
F8.0
tp112
(F8.0
F9.0
tp113
tp114
a((F5.0
F3.0
tp115
(F7.0
F6.0
tp116
(F5.0
F6.0
tp117
tp118
a((F2.0
F9.5
tp119
(F1.0
F7.0
tp120
(F3.0
F8.0
tp121
tp122
aa(lp123
((F6.5
F6.666666666666667
tp124
(F6.0
F6.0
tp125
(F7.25
F7.0
tp126
(F6.25
F7.0
tp127
tp128
a((F7.333333333333333
F1.5
tp129
(F7.0
F0.75
tp130
(F8.0
F1.75
tp131
(F7.0
F2.0
tp132
tp133
a((F8.666666666666666
F1.1666666666666667
tp134
(F8.0
F1.75
tp135
(F9.0
F0.25
tp136
(F9.0
F1.5
tp137
tp138
a((F2.0
F8.166666666666666
tp139
(F1.5
F8.25
tp140
(F2.0
F7.5
tp141
(F2.5
F8.75
tp142
tp143
a((F9.666666666666666
F6.0
tp144
(F9.5
F9.0
tp145
(F9.5
F4.0
tp146
(F10.0
F5.0
tp147
tp148
a((F1.0
F8.833333333333334
tp149
(F0.5
F8.5
tp150
(F1.5
F8.25
tp151
(F1.0
F9.75
tp152
tp153
a((F2.6666666666666665
F1.3333333333333333
tp154
(F1.0
F1.5
tp155
(F3.0
F0.5
tp156
(F4.0
F2.0
tp157
tp158
a((F8.766666730244955
F2.8333333333333335
tp159
(F8.150000095367432
F4.25
tp160
(F9.0
F1.5
tp161
(F9.150000095367432
F2.75
tp162
tp163
a((F6.666666666666667
F9.5
tp164
(F5.0
F9.25
tp165
(F9.0
F9.5
tp166
(F6.0
F9.75
tp167
tp168
a((F7.600000063578288
F6.5
tp169
(F7.25
F7.0
tp170
(F7.650000095367432
F5.75
tp171
(F7.900000095367432
F6.75
tp172
tp173
a((F9.100000063578287
F4.5
tp174
(F8.650000095367432
F6.75
tp175
(F9.150000095367432
F2.75
tp176
(F9.5
F4.0
tp177
tp178
a((F8.266666730244955
F7.166666666666667
tp179
(F7.900000095367432
F6.75
tp180
(F8.650000095367432
F6.75
tp181
(F8.25
F8.0
tp182
tp183
a((F5.166666666666667
F7.333333333333333
tp184
(F4.0
F7.0
tp185
(F6.25
F7.0
tp186
(F5.25
F8.0
tp187
tp188
a((F9.333333333333334
F9.0
tp189
(F9.5
F9.5
tp190
(F9.0
F8.5
tp191
(F9.5
F9.0
tp192
tp193
a((F6.0
F3.3333333333333335
tp194
(F6.0
F4.5
tp195
(F5.5
F2.0
tp196
(F6.5
F3.5
tp197
tp198
a((F4.333333333333333
F8.833333333333334
tp199
(F2.5
F8.75
tp200
(F5.5
F8.5
tp201
(F5.0
F9.25
tp202
tp203
a((F6.166666666666667
F8.333333333333334
tp204
(F5.5
F8.5
tp205
(F5.25
F8.0
tp206
(F7.75
F8.5
tp207
tp208
a((F4.666666666666667
F0.5
tp209
(F3.0
F0.5
tp210
(F4.0
F0.25
tp211
(F7.0
F0.75
tp212
tp213
a((F5.666666666666667
F5.0
tp214
(F6.0
F4.5
tp215
(F6.0
F6.0
tp216
(F5.0
F4.5
tp217
tp218
a((F1.0
F3.3333333333333335
tp219
(F0.5
F3.5
tp220
(F1.0
F1.5
tp221
(F1.5
F5.0
tp222
tp223
a((F4.333333333333333
F2.3333333333333335
tp224
(F3.5
F3.0
tp225
(F4.0
F2.0
tp226
(F5.5
F2.0
tp227
tp228
a((F0.3333333333333333
F5.666666666666667
tp229
(F0.5
F8.5
tp230
(F0.0
F5.0
tp231
(F0.5
F3.5
tp232
tp233
a((F4.666666666666667
F4.333333333333333
tp234
(F4.5
F3.5
tp235
(F5.0
F4.5
tp236
(F4.5
F5.0
tp237
tp238
a((F9.0
F9.333333333333334
tp239
(F8.5
F9.0
tp240
(F9.5
F9.5
tp241
(F9.0
F9.5
tp242
tp243
aa.